; Function Attrs: mustprogress nounwind uwtable
define dso_local void @_ZN4node6crypto7TLSWrap17ClearOcspResponseEv(ptr nocapture noundef nonnull align 8 dereferenceable(457) %this) local_unnamed_addr #3 align 2 {
entry:
  %ocsp_response_ = getelementptr inbounds i8, ptr %this, i64 280
  %0 = load ptr, ptr %ocsp_response_, align 8
  %cmp.i.i = icmp eq ptr %0, null
  br i1 %cmp.i.i, label %_ZN2v814PersistentBaseINS_15ArrayBufferViewEE5ResetEv.exit, label %if.end.i

if.end.i:                                         ; preds = %entry
  tail call void @_ZN2v812api_internal13DisposeGlobalEPm(ptr noundef nonnull %0) #23
  store ptr null, ptr %ocsp_response_, align 8
  br label %_ZN2v814PersistentBaseINS_15ArrayBufferViewEE5ResetEv.exit

_ZN2v814PersistentBaseINS_15ArrayBufferViewEE5ResetEv.exit: ; preds = %entry, %if.end.i
  ret void
}